; Function Attrs: nounwind uwtable
define internal fastcc void @ControllerConnected(ptr noundef %0, ptr noundef nonnull writeonly captures(none) %1) unnamed_addr #0 {
  %3 = alloca [20 x i8], align 16
  %4 = alloca [65 x i8], align 16
  %5 = getelementptr inbounds nuw i8, ptr %0, i64 112
  %6 = load ptr, ptr %5, align 8
  %7 = tail call zeroext i1 @HIDAPI_JoystickConnected(ptr noundef %0, ptr noundef null) #9
  br i1 %7, label %8, label %30

8:                                                ; preds = %2
  %.val = load ptr, ptr %6, align 8
  call void @llvm.lifetime.start.p0(i64 65, ptr nonnull %4) #9
  call void @llvm.memset.p0.i64(ptr noundef nonnull align 16 dereferenceable(65) %4, i8 0, i64 65, i1 false)
  %9 = getelementptr inbounds nuw i8, ptr %4, i64 1
  store i8 -77, ptr %9, align 1
  %10 = getelementptr inbounds nuw i8, ptr %.val, i64 84
  %11 = load i8, ptr %10, align 4, !range !3, !noundef !4
  %12 = trunc nuw i8 %11 to i1
  br i1 %12, label %.lr.ph.i.i.i, label %.preheader.i.i.i

.preheader.i.i.i:                                 ; preds = %8
  %13 = getelementptr inbounds nuw i8, ptr %.val, i64 128
  br label %19

.lr.ph.i.i.i:                                     ; preds = %8
  call void @llvm.lifetime.start.p0(i64 20, ptr nonnull %3) #9
  %14 = getelementptr inbounds nuw i8, ptr %3, i64 1
  %15 = getelementptr inbounds nuw i8, ptr %3, i64 2
  %16 = getelementptr inbounds nuw i8, ptr %.val, i64 128
  call void @llvm.memset.p0.i64(ptr noundef nonnull align 16 dereferenceable(20) %3, i8 0, i64 20, i1 false)
  store i8 3, ptr %3, align 16
  store i8 -64, ptr %14, align 1
  store i8 -77, ptr %15, align 2
  %17 = load ptr, ptr %16, align 8
  %18 = call i32 @SDL_hid_send_feature_report_REAL(ptr noundef %17, ptr noundef nonnull %3, i64 noundef 20) #9
  call void @llvm.lifetime.end.p0(i64 20, ptr nonnull %3) #9
  br label %HIDAPI_DriverSteam_CommitPairing.exit

19:                                               ; preds = %23, %.preheader.i.i.i
  %.034.i.i.i = phi i32 [ 0, %.preheader.i.i.i ], [ %24, %23 ]
  %20 = load ptr, ptr %13, align 8
  %21 = call i32 @SDL_hid_send_feature_report_REAL(ptr noundef %20, ptr noundef nonnull %4, i64 noundef 65) #9
  %22 = icmp sgt i32 %21, -1
  br i1 %22, label %HIDAPI_DriverSteam_CommitPairing.exit, label %23

23:                                               ; preds = %19
  call void @SDL_DelayNS_REAL(i64 noundef 500000) #9
  %24 = add nuw nsw i32 %.034.i.i.i, 1
  %exitcond.not.i.i.i = icmp eq i32 %24, 50
  br i1 %exitcond.not.i.i.i, label %HIDAPI_DriverSteam_CommitPairing.exit, label %19, !llvm.loop !5

HIDAPI_DriverSteam_CommitPairing.exit:            ; preds = %19, %23, %.lr.ph.i.i.i
  call void @llvm.lifetime.end.p0(i64 65, ptr nonnull %4) #9
  %25 = getelementptr inbounds nuw i8, ptr %0, i64 144
  %26 = load ptr, ptr %25, align 8
  %27 = load i32, ptr %26, align 4
  %28 = call ptr @SDL_GetJoystickFromID_REAL(i32 noundef %27) #9
  store ptr %28, ptr %1, align 8
  %29 = getelementptr inbounds nuw i8, ptr %6, i64 8
  store i8 1, ptr %29, align 8
  br label %30

30:                                               ; preds = %2, %HIDAPI_DriverSteam_CommitPairing.exit
  ret void
}